(dp0
S'admin_dir_URL'
p1
S'http://localhost:6080/arcgis/admin'
p2
sS'username'
p3
S'YOUR_USERNAME'
p4
sS'password'
p5
S'YOUR_PASSWORD'
p6
sS'folder_name'
p7
S'Global'
p8
sS'service_name'
p9
S'TRMM'
p10
sS'service_type'
p11
S'MapServer'
s.